target datalayout = "e-m:e-p270:32:32-p271:32:32-p272:64:64-i64:64-i128:128-f80:128-n8:16:32:64-S128"
target triple = "x86_64-pc-linux-gnu"

%struct.pointf_s = type { double, double }
%struct.GVJ_s = type { ptr, ptr, ptr, ptr, ptr, ptr, i32, ptr, ptr, ptr, ptr, i64, i64, ptr, i32, %struct.gvplugin_active_render_s, %struct.gvplugin_active_device_s, %struct.gvplugin_active_loadimage_t, ptr, %struct.pointf_s, i8, ptr, i32, ptr, i8, ptr, i32, i32, i32, %struct.point, %struct.point, %struct.point, %struct.point, %struct.point, i32, %struct.boxf, %struct.pointf_s, %struct.boxf, %struct.boxf, %struct.pointf_s, %struct.pointf_s, double, i32, %struct.pointf_s, %struct.boxf, %struct.pointf_s, %struct.pointf_s, i32, i32, %struct.box, %struct.box, %struct.pointf_s, %struct.pointf_s, %struct.pointf_s, i8, i8, i8, i8, i8, i8, %struct.pointf_s, %struct.pointf_s, ptr, ptr, ptr, ptr, ptr, ptr, i64, ptr }
%struct.gvplugin_active_render_s = type { ptr, i32, ptr, ptr }
%struct.gvplugin_active_device_s = type { ptr, i32, ptr, ptr }
%struct.gvplugin_active_loadimage_t = type { ptr, i32, ptr }
%struct.point = type { i32, i32 }
%struct.boxf = type { %struct.pointf_s, %struct.pointf_s }
%struct.box = type { %struct.point, %struct.point }

; Function Attrs: nounwind uwtable
define internal i32 @rgb_to_grayscale(i32 noundef %0, i32 noundef %1, i32 noundef %2) #0 {
  %4 = alloca i32, align 4
  %5 = alloca i32, align 4
  %6 = alloca i32, align 4
  %7 = alloca double, align 8
  %8 = alloca double, align 8
  %9 = alloca double, align 8
  %10 = alloca double, align 8
  store i32 %0, ptr %4, align 4, !tbaa !8
  store i32 %1, ptr %5, align 4, !tbaa !8
  store i32 %2, ptr %6, align 4, !tbaa !8
  call void @llvm.lifetime.start.p0(i64 8, ptr %7) #5
  %11 = load i32, ptr %4, align 4, !tbaa !8
  %12 = uitofp i32 %11 to double
  %13 = fdiv double %12, 2.550000e+02
  store double %13, ptr %7, align 8, !tbaa !54
  call void @llvm.lifetime.start.p0(i64 8, ptr %8) #5
  %14 = load i32, ptr %5, align 4, !tbaa !8
  %15 = uitofp i32 %14 to double
  %16 = fdiv double %15, 2.550000e+02
  store double %16, ptr %8, align 8, !tbaa !54
  call void @llvm.lifetime.start.p0(i64 8, ptr %9) #5
  %17 = load i32, ptr %6, align 4, !tbaa !8
  %18 = uitofp i32 %17 to double
  %19 = fdiv double %18, 2.550000e+02
  store double %19, ptr %9, align 8, !tbaa !54
  call void @llvm.lifetime.start.p0(i64 8, ptr %10) #5
  %20 = load double, ptr %7, align 8, !tbaa !54
  %21 = load double, ptr %8, align 8, !tbaa !54
  %22 = fmul double 7.152000e-01, %21
  %23 = call double @llvm.fmuladd.f64(double 2.126000e-01, double %20, double %22)
  %24 = load double, ptr %9, align 8, !tbaa !54
  %25 = call double @llvm.fmuladd.f64(double 7.220000e-02, double %24, double %23)
  store double %25, ptr %10, align 8, !tbaa !54
  %26 = load double, ptr %10, align 8, !tbaa !54
  %27 = fmul double %26, 2.559990e+02
  %28 = fptoui double %27 to i32
  call void @llvm.lifetime.end.p0(i64 8, ptr %10) #5
  call void @llvm.lifetime.end.p0(i64 8, ptr %9) #5
  call void @llvm.lifetime.end.p0(i64 8, ptr %8) #5
  call void @llvm.lifetime.end.p0(i64 8, ptr %7) #5
  ret i32 %28
}

; Function Attrs: nounwind uwtable
define internal void @processNup(ptr noundef %0, i32 noundef %1, i32 noundef %2, ptr noundef %3) #0 {
  %5 = alloca ptr, align 8
  %6 = alloca i32, align 4
  %7 = alloca i32, align 4
  %8 = alloca ptr, align 8
  %9 = alloca i32, align 4
  %10 = alloca i32, align 4
  %11 = alloca i32, align 4
  %12 = alloca ptr, align 8
  %13 = alloca i32, align 4
  %14 = alloca i32, align 4
  %15 = alloca i32, align 4
  %16 = alloca i32, align 4
  %17 = alloca i32, align 4
  %18 = alloca i32, align 4
  %19 = alloca i32, align 4
  %20 = alloca i32, align 4
  %21 = alloca i32, align 4
  %22 = alloca i32, align 4
  %23 = alloca i32, align 4
  store ptr %0, ptr %5, align 8, !tbaa !3
  store i32 %1, ptr %6, align 4, !tbaa !8
  store i32 %2, ptr %7, align 4, !tbaa !8
  store ptr %3, ptr %8, align 8, !tbaa !46
  call void @llvm.lifetime.start.p0(i64 4, ptr %9) #5
  store i32 0, ptr %9, align 4, !tbaa !8
  br label %24

24:                                               ; preds = %40, %4
  %25 = load i32, ptr %9, align 4, !tbaa !8
  %26 = load i32, ptr %6, align 4, !tbaa !8
  %27 = icmp ult i32 %25, %26
  br i1 %27, label %29, label %28

28:                                               ; preds = %24
  store i32 2, ptr %10, align 4
  call void @llvm.lifetime.end.p0(i64 4, ptr %9) #5
  br label %43

29:                                               ; preds = %24
  call void @llvm.lifetime.start.p0(i64 4, ptr %11) #5
  store i32 0, ptr %11, align 4, !tbaa !8
  br label %30

30:                                               ; preds = %36, %29
  %31 = load i32, ptr %11, align 4, !tbaa !8
  %32 = load i32, ptr %7, align 4, !tbaa !8
  %33 = icmp ult i32 %31, %32
  br i1 %33, label %35, label %34

34:                                               ; preds = %30
  store i32 5, ptr %10, align 4
  call void @llvm.lifetime.end.p0(i64 4, ptr %11) #5
  br label %39

35:                                               ; preds = %30
  br label %36

36:                                               ; preds = %35
  %37 = load i32, ptr %11, align 4, !tbaa !8
  %38 = add i32 %37, 1
  store i32 %38, ptr %11, align 4, !tbaa !8
  br label %30, !llvm.loop !48

39:                                               ; preds = %34
  br label %40

40:                                               ; preds = %39
  %41 = load i32, ptr %9, align 4, !tbaa !8
  %42 = add i32 %41, 1
  store i32 %42, ptr %9, align 4, !tbaa !8
  br label %24, !llvm.loop !49

43:                                               ; preds = %28
  call void @llvm.lifetime.start.p0(i64 8, ptr %12) #5
  %44 = load ptr, ptr %5, align 8, !tbaa !3
  %45 = getelementptr inbounds nuw %struct.GVJ_s, ptr %44, i32 0, i32 25
  %46 = load ptr, ptr %45, align 8, !tbaa !10
  store ptr %46, ptr %12, align 8, !tbaa !32
  call void @llvm.lifetime.start.p0(i64 4, ptr %13) #5
  store i32 0, ptr %13, align 4, !tbaa !8
  br label %47

47:                                               ; preds = %166, %43
  %48 = load i32, ptr %13, align 4, !tbaa !8
  %49 = load ptr, ptr %5, align 8, !tbaa !3
  %50 = getelementptr inbounds nuw %struct.GVJ_s, ptr %49, i32 0, i32 48
  %51 = load i32, ptr %50, align 4, !tbaa !33
  %52 = icmp ult i32 %48, %51
  br i1 %52, label %54, label %53

53:                                               ; preds = %47
  store i32 8, ptr %10, align 4
  call void @llvm.lifetime.end.p0(i64 4, ptr %13) #5
  br label %170

54:                                               ; preds = %47
  call void @llvm.lifetime.start.p0(i64 4, ptr %14) #5
  store i32 0, ptr %14, align 4, !tbaa !8
  br label %55

55:                                               ; preds = %159, %54
  %56 = load i32, ptr %14, align 4, !tbaa !8
  %57 = load ptr, ptr %5, align 8, !tbaa !3
  %58 = getelementptr inbounds nuw %struct.GVJ_s, ptr %57, i32 0, i32 47
  %59 = load i32, ptr %58, align 8, !tbaa !34
  %60 = icmp ult i32 %56, %59
  br i1 %60, label %62, label %61

61:                                               ; preds = %55
  store i32 11, ptr %10, align 4
  call void @llvm.lifetime.end.p0(i64 4, ptr %14) #5
  br label %163

62:                                               ; preds = %55
  call void @llvm.lifetime.start.p0(i64 4, ptr %15) #5
  store i32 0, ptr %15, align 4, !tbaa !8
  call void @llvm.lifetime.start.p0(i64 4, ptr %16) #5
  store i32 0, ptr %16, align 4, !tbaa !8
  br label %63

63:                                               ; preds = %148, %62
  %64 = load i32, ptr %13, align 4, !tbaa !8
  %65 = load i32, ptr %16, align 4, !tbaa !8
  %66 = add i32 %64, %65
  %67 = load ptr, ptr %5, align 8, !tbaa !3
  %68 = getelementptr inbounds nuw %struct.GVJ_s, ptr %67, i32 0, i32 48
  %69 = load i32, ptr %68, align 4, !tbaa !33
  %70 = icmp ult i32 %66, %69
  br i1 %70, label %71, label %75

71:                                               ; preds = %63
  %72 = load i32, ptr %16, align 4, !tbaa !8
  %73 = load i32, ptr %6, align 4, !tbaa !8
  %74 = icmp ult i32 %72, %73
  br label %75

75:                                               ; preds = %71, %63
  %76 = phi i1 [ false, %63 ], [ %74, %71 ]
  br i1 %76, label %78, label %77

77:                                               ; preds = %75
  store i32 14, ptr %10, align 4
  call void @llvm.lifetime.end.p0(i64 4, ptr %16) #5
  br label %151

78:                                               ; preds = %75
  call void @llvm.lifetime.start.p0(i64 4, ptr %17) #5
  store i32 0, ptr %17, align 4, !tbaa !8
  br label %79

79:                                               ; preds = %144, %78
  %80 = load i32, ptr %14, align 4, !tbaa !8
  %81 = load i32, ptr %17, align 4, !tbaa !8
  %82 = add i32 %80, %81
  %83 = load ptr, ptr %5, align 8, !tbaa !3
  %84 = getelementptr inbounds nuw %struct.GVJ_s, ptr %83, i32 0, i32 47
  %85 = load i32, ptr %84, align 8, !tbaa !34
  %86 = icmp ult i32 %82, %85
  br i1 %86, label %87, label %91

87:                                               ; preds = %79
  %88 = load i32, ptr %17, align 4, !tbaa !8
  %89 = load i32, ptr %7, align 4, !tbaa !8
  %90 = icmp ult i32 %88, %89
  br label %91

91:                                               ; preds = %87, %79
  %92 = phi i1 [ false, %79 ], [ %90, %87 ]
  br i1 %92, label %94, label %93

93:                                               ; preds = %91
  store i32 17, ptr %10, align 4
  call void @llvm.lifetime.end.p0(i64 4, ptr %17) #5
  br label %147

94:                                               ; preds = %91
  call void @llvm.lifetime.start.p0(i64 4, ptr %18) #5
  %95 = load i32, ptr %13, align 4, !tbaa !8
  %96 = load i32, ptr %16, align 4, !tbaa !8
  %97 = add i32 %95, %96
  %98 = load ptr, ptr %5, align 8, !tbaa !3
  %99 = getelementptr inbounds nuw %struct.GVJ_s, ptr %98, i32 0, i32 47
  %100 = load i32, ptr %99, align 8, !tbaa !34
  %101 = mul i32 %97, %100
  %102 = mul i32 %101, 4
  %103 = load i32, ptr %14, align 4, !tbaa !8
  %104 = load i32, ptr %17, align 4, !tbaa !8
  %105 = add i32 %103, %104
  %106 = mul i32 %105, 4
  %107 = add i32 %102, %106
  store i32 %107, ptr %18, align 4, !tbaa !8
  call void @llvm.lifetime.start.p0(i64 4, ptr %19) #5
  %108 = load ptr, ptr %12, align 8, !tbaa !32
  %109 = load i32, ptr %18, align 4, !tbaa !8
  %110 = add i32 %109, 2
  %111 = zext i32 %110 to i64
  %112 = getelementptr inbounds nuw i8, ptr %108, i64 %111
  %113 = load i8, ptr %112, align 1, !tbaa !35
  %114 = zext i8 %113 to i32
  store i32 %114, ptr %19, align 4, !tbaa !8
  call void @llvm.lifetime.start.p0(i64 4, ptr %20) #5
  %115 = load ptr, ptr %12, align 8, !tbaa !32
  %116 = load i32, ptr %18, align 4, !tbaa !8
  %117 = add i32 %116, 1
  %118 = zext i32 %117 to i64
  %119 = getelementptr inbounds nuw i8, ptr %115, i64 %118
  %120 = load i8, ptr %119, align 1, !tbaa !35
  %121 = zext i8 %120 to i32
  store i32 %121, ptr %20, align 4, !tbaa !8
  call void @llvm.lifetime.start.p0(i64 4, ptr %21) #5
  %122 = load ptr, ptr %12, align 8, !tbaa !32
  %123 = load i32, ptr %18, align 4, !tbaa !8
  %124 = zext i32 %123 to i64
  %125 = getelementptr inbounds nuw i8, ptr %122, i64 %124
  %126 = load i8, ptr %125, align 1, !tbaa !35
  %127 = zext i8 %126 to i32
  store i32 %127, ptr %21, align 4, !tbaa !8
  call void @llvm.lifetime.start.p0(i64 4, ptr %22) #5
  %128 = load i32, ptr %19, align 4, !tbaa !8
  %129 = load i32, ptr %20, align 4, !tbaa !8
  %130 = load i32, ptr %21, align 4, !tbaa !8
  %131 = call i32 @rgb_to_grayscale(i32 noundef %128, i32 noundef %129, i32 noundef %130)
  store i32 %131, ptr %22, align 4, !tbaa !8
  call void @llvm.lifetime.start.p0(i64 4, ptr %23) #5
  %132 = load i32, ptr %22, align 4, !tbaa !8
  %133 = icmp uge i32 %132, 240
  %134 = zext i1 %133 to i32
  store i32 %134, ptr %23, align 4, !tbaa !8
  %135 = load i32, ptr %23, align 4, !tbaa !8
  %136 = load i32, ptr %16, align 4, !tbaa !8
  %137 = load i32, ptr %7, align 4, !tbaa !8
  %138 = mul i32 %136, %137
  %139 = load i32, ptr %17, align 4, !tbaa !8
  %140 = add i32 %138, %139
  %141 = shl i32 %135, %140
  %142 = load i32, ptr %15, align 4, !tbaa !8
  %143 = or i32 %142, %141
  store i32 %143, ptr %15, align 4, !tbaa !8
  call void @llvm.lifetime.end.p0(i64 4, ptr %23) #5
  call void @llvm.lifetime.end.p0(i64 4, ptr %22) #5
  call void @llvm.lifetime.end.p0(i64 4, ptr %21) #5
  call void @llvm.lifetime.end.p0(i64 4, ptr %20) #5
  call void @llvm.lifetime.end.p0(i64 4, ptr %19) #5
  call void @llvm.lifetime.end.p0(i64 4, ptr %18) #5
  br label %144

144:                                              ; preds = %94
  %145 = load i32, ptr %17, align 4, !tbaa !8
  %146 = add i32 %145, 1
  store i32 %146, ptr %17, align 4, !tbaa !8
  br label %79, !llvm.loop !50

147:                                              ; preds = %93
  br label %148

148:                                              ; preds = %147
  %149 = load i32, ptr %16, align 4, !tbaa !8
  %150 = add i32 %149, 1
  store i32 %150, ptr %16, align 4, !tbaa !8
  br label %63, !llvm.loop !51

151:                                              ; preds = %77
  %152 = load ptr, ptr %5, align 8, !tbaa !3
  %153 = load ptr, ptr %8, align 8, !tbaa !46
  %154 = load i32, ptr %15, align 4, !tbaa !8
  %155 = zext i32 %154 to i64
  %156 = getelementptr inbounds nuw ptr, ptr %153, i64 %155
  %157 = load ptr, ptr %156, align 8, !tbaa !32
  %158 = call i32 @gvputs(ptr noundef %152, ptr noundef %157)
  call void @llvm.lifetime.end.p0(i64 4, ptr %15) #5
  br label %159

159:                                              ; preds = %151
  %160 = load i32, ptr %7, align 4, !tbaa !8
  %161 = load i32, ptr %14, align 4, !tbaa !8
  %162 = add i32 %161, %160
  store i32 %162, ptr %14, align 4, !tbaa !8
  br label %55, !llvm.loop !52

163:                                              ; preds = %61
  %164 = load ptr, ptr %5, align 8, !tbaa !3
  %165 = call i32 @gvputc(ptr noundef %164, i32 noundef 10)
  br label %166

166:                                              ; preds = %163
  %167 = load i32, ptr %6, align 4, !tbaa !8
  %168 = load i32, ptr %13, align 4, !tbaa !8
  %169 = add i32 %168, %167
  store i32 %169, ptr %13, align 4, !tbaa !8
  br label %47, !llvm.loop !53

170:                                              ; preds = %53
  call void @llvm.lifetime.end.p0(i64 8, ptr %12) #5
  ret void
}