; Function Attrs: nounwind uwtable
define internal fastcc void @processNup(ptr noundef %0, i32 noundef range(i32 2, 5) %1, ptr noundef nonnull readonly captures(none) %2) unnamed_addr #0 {
  %4 = getelementptr inbounds nuw i8, ptr %0, i64 272
  %5 = load ptr, ptr %4, align 8, !tbaa !3
  %6 = getelementptr inbounds nuw i8, ptr %0, i64 580
  %7 = load i32, ptr %6, align 4, !tbaa !30
  %.not = icmp eq i32 %7, 0
  br i1 %.not, label %._crit_edge74, label %.preheader62.lr.ph

.preheader62.lr.ph:                               ; preds = %3
  %8 = getelementptr inbounds nuw i8, ptr %0, i64 576
  %9 = zext nneg i32 %1 to i64
  br label %.preheader62

.preheader62:                                     ; preds = %.preheader62.lr.ph, %._crit_edge
  %.05173 = phi i32 [ 0, %.preheader62.lr.ph ], [ %56, %._crit_edge ]
  %10 = load i32, ptr %8, align 8, !tbaa !31
  %.not75 = icmp eq i32 %10, 0
  br i1 %.not75, label %._crit_edge, label %.preheader61

._crit_edge74:                                    ; preds = %._crit_edge, %3
  ret void

.preheader61:                                     ; preds = %.preheader62, %._crit_edge69
  %indvars.iv78 = phi i32 [ %indvars.iv.next79, %._crit_edge69 ], [ -1, %.preheader62 ]
  %11 = phi i32 [ %64, %._crit_edge69 ], [ %10, %.preheader62 ]
  %.05271 = phi i32 [ %63, %._crit_edge69 ], [ 0, %.preheader62 ]
  %12 = load i32, ptr %6, align 4, !tbaa !30
  %13 = icmp ult i32 %.05173, %12
  %14 = icmp ult i32 %.05271, %11
  %or.cond = and i1 %13, %14
  br i1 %or.cond, label %.preheader.us.preheader, label %._crit_edge69

.preheader.us.preheader:                          ; preds = %.preheader61
  %15 = sub i32 0, %indvars.iv78
  %.not83 = icmp eq i32 %11, %15
  %wide.trip.count = select i1 %.not83, i64 1, i64 2
  br label %.preheader.us

.preheader.us:                                    ; preds = %.preheader.us.preheader, %._crit_edge.us
  %indvars.iv80 = phi i64 [ 0, %.preheader.us.preheader ], [ %indvars.iv.next81, %._crit_edge.us ]
  %.05368.us = phi i32 [ 0, %.preheader.us.preheader ], [ %50, %._crit_edge.us ]
  %16 = trunc i64 %indvars.iv80 to i32
  %17 = add i32 %.05173, %16
  %18 = mul i32 %17, %11
  %19 = shl nuw nsw i64 %indvars.iv80, 1
  %invariant.op = add i32 %.05271, %18
  br label %20

20:                                               ; preds = %.preheader.us, %20
  %indvars.iv = phi i64 [ 0, %.preheader.us ], [ %indvars.iv.next, %20 ]
  %.166.us = phi i32 [ %.05368.us, %.preheader.us ], [ %50, %20 ]
  %21 = trunc i64 %indvars.iv to i32
  %.reass = add i32 %invariant.op, %21
  %22 = shl i32 %.reass, 2
  %23 = or disjoint i32 %22, 2
  %24 = zext i32 %23 to i64
  %25 = getelementptr inbounds nuw i8, ptr %5, i64 %24
  %26 = load i8, ptr %25, align 1, !tbaa !34
  %27 = or disjoint i32 %22, 1
  %28 = zext i32 %27 to i64
  %29 = getelementptr inbounds nuw i8, ptr %5, i64 %28
  %30 = load i8, ptr %29, align 1, !tbaa !34
  %31 = zext i32 %22 to i64
  %32 = getelementptr inbounds nuw i8, ptr %5, i64 %31
  %33 = load i8, ptr %32, align 1, !tbaa !34
  %34 = uitofp i8 %26 to double
  %35 = fdiv double %34, 2.550000e+02
  %36 = uitofp i8 %30 to double
  %37 = fdiv double %36, 2.550000e+02
  %38 = uitofp i8 %33 to double
  %39 = fdiv double %38, 2.550000e+02
  %40 = fmul double %37, 7.152000e-01
  %41 = tail call double @llvm.fmuladd.f64(double %35, double 2.126000e-01, double %40)
  %42 = tail call double @llvm.fmuladd.f64(double %39, double 7.220000e-02, double %41)
  %43 = fmul double %42, 2.559990e+02
  %44 = fptoui double %43 to i32
  %45 = icmp ugt i32 %44, 239
  %46 = zext i1 %45 to i32
  %47 = add nuw nsw i64 %indvars.iv, %19
  %48 = trunc nuw nsw i64 %47 to i32
  %49 = shl nuw nsw i32 %46, %48
  %50 = or i32 %49, %.166.us
  %indvars.iv.next = add nuw nsw i64 %indvars.iv, 1
  %exitcond.not = icmp eq i64 %indvars.iv.next, %wide.trip.count
  br i1 %exitcond.not, label %._crit_edge.us, label %20, !llvm.loop !37

._crit_edge.us:                                   ; preds = %20
  %indvars.iv.next81 = add nuw nsw i64 %indvars.iv80, 1
  %indvars = trunc i64 %indvars.iv.next81 to i32
  %51 = add i32 %.05173, %indvars
  %52 = icmp ult i32 %51, %12
  %53 = icmp samesign ult i64 %indvars.iv.next81, %9
  %54 = select i1 %52, i1 %53, i1 false
  br i1 %54, label %.preheader.us, label %._crit_edge69.loopexit, !llvm.loop !38

._crit_edge:                                      ; preds = %._crit_edge69, %.preheader62
  %55 = tail call i32 @gvputc(ptr noundef nonnull %0, i32 noundef 10) #4
  %56 = add i32 %.05173, %1
  %57 = load i32, ptr %6, align 4, !tbaa !30
  %58 = icmp ult i32 %56, %57
  br i1 %58, label %.preheader62, label %._crit_edge74, !llvm.loop !39

._crit_edge69.loopexit:                           ; preds = %._crit_edge.us
  %59 = zext i32 %50 to i64
  br label %._crit_edge69

._crit_edge69:                                    ; preds = %._crit_edge69.loopexit, %.preheader61
  %.053.lcssa = phi i64 [ 0, %.preheader61 ], [ %59, %._crit_edge69.loopexit ]
  %60 = getelementptr inbounds nuw ptr, ptr %2, i64 %.053.lcssa
  %61 = load ptr, ptr %60, align 8, !tbaa !40
  %62 = tail call i32 @gvputs(ptr noundef nonnull %0, ptr noundef %61) #4
  %63 = add i32 %.05271, 2
  %64 = load i32, ptr %8, align 8, !tbaa !31
  %65 = icmp ult i32 %63, %64
  %indvars.iv.next79 = add i32 %indvars.iv78, -2
  br i1 %65, label %.preheader61, label %._crit_edge, !llvm.loop !41
}